; Function Attrs: mustprogress uwtable
define hidden void @_ZN3p2t5Sweep23FillLeftConvexEdgeEventERNS_12SweepContextEPNS_4EdgeERNS_4NodeE(ptr noundef nonnull align 8 dereferenceable(24) %0, ptr noundef nonnull align 8 dereferenceable(200) %1, ptr noundef readonly captures(none) %2, ptr noundef nonnull readonly align 8 captures(none) dereferenceable(40) %3) local_unnamed_addr #2 align 2 {
  %5 = getelementptr inbounds nuw i8, ptr %2, i64 8
  %.phi.trans.insert = getelementptr inbounds nuw i8, ptr %3, i64 24
  %.pre = load ptr, ptr %.phi.trans.insert, align 8
  %.pre28 = load ptr, ptr %.pre, align 8
  %.phi.trans.insert29 = getelementptr inbounds nuw i8, ptr %.pre, i64 24
  %.pre30 = load ptr, ptr %.phi.trans.insert29, align 8
  %.pre31 = load ptr, ptr %.pre30, align 8
  %.pre32 = load double, ptr %.pre28, align 8
  %.phi.trans.insert33 = getelementptr inbounds nuw i8, ptr %.pre31, i64 8
  %.pre34 = load double, ptr %.phi.trans.insert33, align 8
  %.pre35 = load double, ptr %.pre31, align 8
  %6 = getelementptr inbounds nuw i8, ptr %.pre30, i64 24
  %7 = load ptr, ptr %6, align 8
  %8 = load ptr, ptr %7, align 8
  %9 = load double, ptr %8, align 8
  %10 = fsub double %.pre32, %9
  %11 = getelementptr inbounds nuw i8, ptr %8, i64 8
  %12 = load double, ptr %11, align 8
  %13 = fsub double %.pre34, %12
  %14 = fmul double %10, %13
  %15 = getelementptr inbounds nuw i8, ptr %.pre28, i64 8
  %16 = load double, ptr %15, align 8
  %17 = fsub double %16, %12
  %18 = fsub double %.pre35, %9
  %19 = fmul double %17, %18
  %20 = fsub double %14, %19
  %21 = fcmp ult double %20, 0.000000e+00
  br i1 %21, label %tailrecurse._crit_edge, label %.lr.ph.preheader

.lr.ph.preheader:                                 ; preds = %4
  %22 = load ptr, ptr %5, align 8
  %23 = load ptr, ptr %2, align 8
  %24 = load double, ptr %22, align 8
  %25 = load double, ptr %23, align 8
  %26 = fsub double %24, %25
  %27 = getelementptr inbounds nuw i8, ptr %23, i64 8
  %28 = load double, ptr %27, align 8
  %29 = getelementptr inbounds nuw i8, ptr %22, i64 8
  %30 = load double, ptr %29, align 8
  %31 = fsub double %30, %28
  br label %.lr.ph

tailrecurse:                                      ; preds = %.lr.ph
  %32 = getelementptr inbounds nuw i8, ptr %94, i64 24
  %33 = load ptr, ptr %32, align 8
  %34 = load ptr, ptr %33, align 8
  %35 = load double, ptr %34, align 8
  %36 = fsub double %98, %35
  %37 = getelementptr inbounds nuw i8, ptr %34, i64 8
  %38 = load double, ptr %37, align 8
  %39 = fsub double %91, %38
  %40 = fmul double %36, %39
  %41 = getelementptr inbounds nuw i8, ptr %96, i64 8
  %42 = load double, ptr %41, align 8
  %43 = fsub double %42, %38
  %44 = fsub double %92, %35
  %45 = fmul double %43, %44
  %46 = fsub double %40, %45
  %47 = fcmp ult double %46, 0.000000e+00
  br i1 %47, label %tailrecurse._crit_edge, label %.lr.ph

tailrecurse._crit_edge:                           ; preds = %tailrecurse, %4
  %.lcssa45 = phi ptr [ %.pre30, %4 ], [ %94, %tailrecurse ]
  %.lcssa = phi ptr [ %.pre, %4 ], [ %95, %tailrecurse ]
  %48 = getelementptr inbounds nuw i8, ptr %.lcssa, i64 24
  br label %tailrecurse.i

tailrecurse.i:                                    ; preds = %72, %tailrecurse._crit_edge
  %49 = phi ptr [ %50, %72 ], [ %.lcssa45, %tailrecurse._crit_edge ]
  tail call void @_ZN3p2t5Sweep4FillERNS_12SweepContextERNS_4NodeE(ptr noundef nonnull align 8 dereferenceable(24) %0, ptr noundef nonnull align 8 dereferenceable(200) %1, ptr noundef nonnull align 8 dereferenceable(40) %49)
  %50 = load ptr, ptr %48, align 8
  %51 = load ptr, ptr %50, align 8
  %52 = load ptr, ptr %2, align 8
  %.not.i = icmp eq ptr %51, %52
  br i1 %.not.i, label %_ZN3p2t5Sweep24FillLeftConcaveEdgeEventERNS_12SweepContextEPNS_4EdgeERNS_4NodeE.exit, label %53

53:                                               ; preds = %tailrecurse.i
  %54 = load ptr, ptr %5, align 8
  %55 = load double, ptr %54, align 8
  %56 = load double, ptr %52, align 8
  %57 = fsub double %55, %56
  %58 = getelementptr inbounds nuw i8, ptr %51, i64 8
  %59 = load double, ptr %58, align 8
  %60 = getelementptr inbounds nuw i8, ptr %52, i64 8
  %61 = load double, ptr %60, align 8
  %62 = fsub double %59, %61
  %63 = fmul double %57, %62
  %64 = getelementptr inbounds nuw i8, ptr %54, i64 8
  %65 = load double, ptr %64, align 8
  %66 = fsub double %65, %61
  %67 = load double, ptr %51, align 8
  %68 = fsub double %67, %56
  %69 = fmul double %66, %68
  %70 = fsub double %63, %69
  %71 = fcmp ult double %70, 0.000000e+00
  br i1 %71, label %72, label %_ZN3p2t5Sweep24FillLeftConcaveEdgeEventERNS_12SweepContextEPNS_4EdgeERNS_4NodeE.exit

72:                                               ; preds = %53
  %73 = load ptr, ptr %.lcssa, align 8
  %74 = getelementptr inbounds nuw i8, ptr %50, i64 24
  %75 = load ptr, ptr %74, align 8
  %76 = load ptr, ptr %75, align 8
  %77 = load double, ptr %73, align 8
  %78 = load double, ptr %76, align 8
  %79 = fsub double %77, %78
  %80 = getelementptr inbounds nuw i8, ptr %76, i64 8
  %81 = load double, ptr %80, align 8
  %82 = fsub double %59, %81
  %83 = fmul double %79, %82
  %84 = getelementptr inbounds nuw i8, ptr %73, i64 8
  %85 = load double, ptr %84, align 8
  %86 = fsub double %85, %81
  %87 = fsub double %67, %78
  %88 = fmul double %87, %86
  %89 = fsub double %83, %88
  %90 = fcmp ult double %89, 0.000000e+00
  br i1 %90, label %tailrecurse.i, label %_ZN3p2t5Sweep24FillLeftConcaveEdgeEventERNS_12SweepContextEPNS_4EdgeERNS_4NodeE.exit

.lr.ph:                                           ; preds = %.lr.ph.preheader, %tailrecurse
  %91 = phi double [ %38, %tailrecurse ], [ %12, %.lr.ph.preheader ]
  %92 = phi double [ %35, %tailrecurse ], [ %9, %.lr.ph.preheader ]
  %93 = phi ptr [ %34, %tailrecurse ], [ %8, %.lr.ph.preheader ]
  %94 = phi ptr [ %33, %tailrecurse ], [ %7, %.lr.ph.preheader ]
  %95 = phi ptr [ %94, %tailrecurse ], [ %.pre30, %.lr.ph.preheader ]
  %96 = phi ptr [ %93, %tailrecurse ], [ %.pre31, %.lr.ph.preheader ]
  %97 = phi double [ %91, %tailrecurse ], [ %.pre34, %.lr.ph.preheader ]
  %98 = phi double [ %92, %tailrecurse ], [ %.pre35, %.lr.ph.preheader ]
  %99 = fsub double %97, %28
  %100 = fmul double %26, %99
  %101 = fsub double %98, %25
  %102 = fmul double %101, %31
  %103 = fsub double %100, %102
  %104 = fcmp ult double %103, 0.000000e+00
  br i1 %104, label %tailrecurse, label %_ZN3p2t5Sweep24FillLeftConcaveEdgeEventERNS_12SweepContextEPNS_4EdgeERNS_4NodeE.exit

_ZN3p2t5Sweep24FillLeftConcaveEdgeEventERNS_12SweepContextEPNS_4EdgeERNS_4NodeE.exit: ; preds = %.lr.ph, %72, %53, %tailrecurse.i
  ret void
}